target datalayout = "e-m:e-p270:32:32-p271:32:32-p272:64:64-i64:64-i128:128-f80:128-n8:16:32:64-S128"
target triple = "x86_64-pc-linux-gnu"

%class.LiveRangeMap = type { i32, %class.GrowableArray, %class.GrowableArray }
%class.GrowableArray = type { %class.GrowableArrayWithAllocator, %class.GrowableArrayMetadata }
%class.GrowableArrayWithAllocator = type { %class.GrowableArrayView }
%class.GrowableArrayView = type { %class.GrowableArrayBase, ptr }
%class.GrowableArrayBase = type { i32, i32 }
%class.GrowableArrayMetadata = type { i64 }

; Function Attrs: mustprogress nounwind uwtable
define hidden noundef i32 @_ZN12LiveRangeMap13find_compressEj(ptr noundef nonnull align 8 dereferenceable(56) %0, i32 noundef %1) #1 align 2 {
  %3 = alloca ptr, align 8
  %4 = alloca i32, align 4
  %5 = alloca i32, align 4
  %6 = alloca i32, align 4
  %7 = alloca i32, align 4
  store ptr %0, ptr %3, align 8
  store i32 %1, ptr %4, align 4
  %8 = load ptr, ptr %3, align 8
  %9 = load i32, ptr %4, align 4
  store i32 %9, ptr %5, align 4
  %10 = getelementptr inbounds %class.LiveRangeMap, ptr %8, i32 0, i32 1
  %11 = load i32, ptr %5, align 4
  %12 = call noundef nonnull align 4 dereferenceable(4) ptr @_ZN17GrowableArrayViewIjE2atEi(ptr noundef nonnull align 8 dereferenceable(16) %10, i32 noundef %11)
  %13 = load i32, ptr %12, align 4
  store i32 %13, ptr %6, align 4
  br label %14

14:                                               ; preds = %18, %2
  %15 = load i32, ptr %6, align 4
  %16 = load i32, ptr %5, align 4
  %17 = icmp ne i32 %15, %16
  br i1 %17, label %18, label %24

18:                                               ; preds = %14
  %19 = load i32, ptr %6, align 4
  store i32 %19, ptr %5, align 4
  %20 = getelementptr inbounds %class.LiveRangeMap, ptr %8, i32 0, i32 1
  %21 = load i32, ptr %5, align 4
  %22 = call noundef nonnull align 4 dereferenceable(4) ptr @_ZN17GrowableArrayViewIjE2atEi(ptr noundef nonnull align 8 dereferenceable(16) %20, i32 noundef %21)
  %23 = load i32, ptr %22, align 4
  store i32 %23, ptr %6, align 4
  br label %14, !llvm.loop !6

24:                                               ; preds = %14
  br label %25

25:                                               ; preds = %29, %24
  %26 = load i32, ptr %4, align 4
  %27 = load i32, ptr %6, align 4
  %28 = icmp ne i32 %26, %27
  br i1 %28, label %29, label %37

29:                                               ; preds = %25
  %30 = getelementptr inbounds %class.LiveRangeMap, ptr %8, i32 0, i32 1
  %31 = load i32, ptr %4, align 4
  %32 = call noundef nonnull align 4 dereferenceable(4) ptr @_ZN17GrowableArrayViewIjE2atEi(ptr noundef nonnull align 8 dereferenceable(16) %30, i32 noundef %31)
  %33 = load i32, ptr %32, align 4
  store i32 %33, ptr %7, align 4
  %34 = getelementptr inbounds %class.LiveRangeMap, ptr %8, i32 0, i32 1
  %35 = load i32, ptr %4, align 4
  call void @_ZN17GrowableArrayViewIjE6at_putEiRKj(ptr noundef nonnull align 8 dereferenceable(16) %34, i32 noundef %35, ptr noundef nonnull align 4 dereferenceable(4) %6)
  %36 = load i32, ptr %7, align 4
  store i32 %36, ptr %4, align 4
  br label %25, !llvm.loop !8

37:                                               ; preds = %25
  %38 = load i32, ptr %4, align 4
  ret i32 %38
}

; Function Attrs: mustprogress nounwind uwtable
define linkonce_odr hidden void @_ZN17GrowableArrayViewIjE6at_putEiRKj(ptr noundef nonnull align 8 dereferenceable(16) %0, i32 noundef %1, ptr noundef nonnull align 4 dereferenceable(4) %2) #1 comdat align 2 {
  %4 = alloca ptr, align 8
  %5 = alloca i32, align 4
  %6 = alloca ptr, align 8
  store ptr %0, ptr %4, align 8
  store i32 %1, ptr %5, align 4
  store ptr %2, ptr %6, align 8
  %7 = load ptr, ptr %4, align 8
  %8 = load ptr, ptr %6, align 8
  %9 = load i32, ptr %8, align 4
  %10 = getelementptr inbounds %class.GrowableArrayView, ptr %7, i32 0, i32 1
  %11 = load ptr, ptr %10, align 8
  %12 = load i32, ptr %5, align 4
  %13 = sext i32 %12 to i64
  %14 = getelementptr inbounds i32, ptr %11, i64 %13
  store i32 %9, ptr %14, align 4
  ret void
}

; Function Attrs: mustprogress nounwind uwtable
define linkonce_odr hidden noundef i32 @_ZN12LiveRangeMap4findEj(ptr noundef nonnull align 8 dereferenceable(56) %0, i32 noundef %1) #1 comdat align 2 {
  %3 = alloca ptr, align 8
  %4 = alloca i32, align 4
  %5 = alloca i32, align 4
  store ptr %0, ptr %3, align 8
  store i32 %1, ptr %4, align 4
  %6 = load ptr, ptr %3, align 8
  %7 = getelementptr inbounds %class.LiveRangeMap, ptr %6, i32 0, i32 1
  %8 = load i32, ptr %4, align 4
  %9 = call noundef nonnull align 4 dereferenceable(4) ptr @_ZN17GrowableArrayViewIjE2atEi(ptr noundef nonnull align 8 dereferenceable(16) %7, i32 noundef %8)
  %10 = load i32, ptr %9, align 4
  store i32 %10, ptr %5, align 4
  %11 = load i32, ptr %5, align 4
  %12 = load i32, ptr %4, align 4
  %13 = icmp eq i32 %11, %12
  br i1 %13, label %14, label %16

14:                                               ; preds = %2
  %15 = load i32, ptr %5, align 4
  br label %19

16:                                               ; preds = %2
  %17 = load i32, ptr %4, align 4
  %18 = call noundef i32 @_ZN12LiveRangeMap13find_compressEj(ptr noundef nonnull align 8 dereferenceable(56) %6, i32 noundef %17)
  br label %19

19:                                               ; preds = %16, %14
  %20 = phi i32 [ %15, %14 ], [ %18, %16 ]
  ret i32 %20
}

; Function Attrs: mustprogress nounwind uwtable
define linkonce_odr hidden noundef nonnull align 4 dereferenceable(4) ptr @_ZN17GrowableArrayViewIjE2atEi(ptr noundef nonnull align 8 dereferenceable(16) %0, i32 noundef %1) #1 comdat align 2 {
  %3 = alloca ptr, align 8
  %4 = alloca i32, align 4
  store ptr %0, ptr %3, align 8
  store i32 %1, ptr %4, align 4
  %5 = load ptr, ptr %3, align 8
  %6 = getelementptr inbounds %class.GrowableArrayView, ptr %5, i32 0, i32 1
  %7 = load ptr, ptr %6, align 8
  %8 = load i32, ptr %4, align 4
  %9 = sext i32 %8 to i64
  %10 = getelementptr inbounds i32, ptr %7, i64 %9
  ret ptr %10
}

; Function Attrs: mustprogress nounwind uwtable
define linkonce_odr hidden noundef i32 @_ZNK17GrowableArrayBase6lengthEv(ptr noundef nonnull align 4 dereferenceable(8) %0) #1 comdat align 2 {
  %2 = alloca ptr, align 8
  store ptr %0, ptr %2, align 8
  %3 = load ptr, ptr %2, align 8
  %4 = getelementptr inbounds %class.GrowableArrayBase, ptr %3, i32 0, i32 0
  %5 = load i32, ptr %4, align 4
  ret i32 %5
}

; Function Attrs: mustprogress nounwind uwtable
define hidden void @_ZN12LiveRangeMap25compress_uf_map_for_nodesEv(ptr noundef nonnull align 8 dereferenceable(56) %0) #1 align 2 {
  %2 = alloca ptr, align 8
  %3 = alloca i32, align 4
  %4 = alloca i32, align 4
  %5 = alloca i32, align 4
  %6 = alloca i32, align 4
  store ptr %0, ptr %2, align 8
  %7 = load ptr, ptr %2, align 8
  %8 = getelementptr inbounds %class.LiveRangeMap, ptr %7, i32 0, i32 2
  %9 = call noundef i32 @_ZNK17GrowableArrayBase6lengthEv(ptr noundef nonnull align 4 dereferenceable(8) %8)
  store i32 %9, ptr %3, align 4
  store i32 0, ptr %4, align 4
  br label %10

10:                                               ; preds = %28, %1
  %11 = load i32, ptr %4, align 4
  %12 = load i32, ptr %3, align 4
  %13 = icmp ult i32 %11, %12
  br i1 %13, label %14, label %31

14:                                               ; preds = %10
  %15 = getelementptr inbounds %class.LiveRangeMap, ptr %7, i32 0, i32 2
  %16 = load i32, ptr %4, align 4
  %17 = call noundef nonnull align 4 dereferenceable(4) ptr @_ZN17GrowableArrayViewIjE2atEi(ptr noundef nonnull align 8 dereferenceable(16) %15, i32 noundef %16)
  %18 = load i32, ptr %17, align 4
  store i32 %18, ptr %5, align 4
  %19 = load i32, ptr %5, align 4
  %20 = call noundef i32 @_ZN12LiveRangeMap4findEj(ptr noundef nonnull align 8 dereferenceable(56) %7, i32 noundef %19)
  store i32 %20, ptr %6, align 4
  %21 = load i32, ptr %5, align 4
  %22 = load i32, ptr %6, align 4
  %23 = icmp ne i32 %21, %22
  br i1 %23, label %24, label %27

24:                                               ; preds = %14
  %25 = getelementptr inbounds %class.LiveRangeMap, ptr %7, i32 0, i32 2
  %26 = load i32, ptr %4, align 4
  call void @_ZN17GrowableArrayViewIjE6at_putEiRKj(ptr noundef nonnull align 8 dereferenceable(16) %25, i32 noundef %26, ptr noundef nonnull align 4 dereferenceable(4) %6)
  br label %27

27:                                               ; preds = %24, %14
  br label %28

28:                                               ; preds = %27
  %29 = load i32, ptr %4, align 4
  %30 = add i32 %29, 1
  store i32 %30, ptr %4, align 4
  br label %10, !llvm.loop !11

31:                                               ; preds = %10
  ret void
}