; Function Attrs: mustprogress nofree norecurse nosync nounwind memory(readwrite, inaccessiblemem: none) uwtable
define hidden void @_ZN12LiveRangeMap25compress_uf_map_for_nodesEv(ptr nocapture noundef nonnull readonly align 8 dereferenceable(56) %0) local_unnamed_addr #1 align 2 {
  %2 = getelementptr inbounds i8, ptr %0, i64 32
  %3 = load i32, ptr %2, align 8
  %.not9 = icmp eq i32 %3, 0
  br i1 %.not9, label %._crit_edge, label %.lr.ph

.lr.ph:                                           ; preds = %1
  %4 = getelementptr inbounds i8, ptr %0, i64 40
  %5 = getelementptr inbounds i8, ptr %0, i64 16
  br label %6

6:                                                ; preds = %.lr.ph, %_ZN12LiveRangeMap4findEj.exit.thread
  %.08 = phi i32 [ 0, %.lr.ph ], [ %22, %_ZN12LiveRangeMap4findEj.exit.thread ]
  %7 = load ptr, ptr %4, align 8
  %8 = sext i32 %.08 to i64
  %9 = getelementptr inbounds i32, ptr %7, i64 %8
  %10 = load i32, ptr %9, align 4
  %11 = load ptr, ptr %5, align 8
  %12 = sext i32 %10 to i64
  %13 = getelementptr inbounds i32, ptr %11, i64 %12
  %14 = load i32, ptr %13, align 4
  %15 = icmp eq i32 %14, %10
  br i1 %15, label %_ZN12LiveRangeMap4findEj.exit.thread, label %.preheader

.preheader:                                       ; preds = %6, %.preheader
  %.09.i.i = phi i32 [ %storemerge.i.i, %.preheader ], [ %10, %6 ]
  %.pn.i.i = sext i32 %.09.i.i to i64
  %storemerge.in.i.i = getelementptr inbounds i32, ptr %11, i64 %.pn.i.i
  %storemerge.i.i = load i32, ptr %storemerge.in.i.i, align 4
  %.not.i.i = icmp eq i32 %storemerge.i.i, %.09.i.i
  br i1 %.not.i.i, label %.preheader.i.i, label %.preheader, !llvm.loop !6

.preheader.i.i:                                   ; preds = %.preheader
  %.not1113.i.i = icmp eq i32 %.09.i.i, %10
  br i1 %.not1113.i.i, label %_ZN12LiveRangeMap4findEj.exit.thread, label %.lr.ph.i.i

.lr.ph.i.i:                                       ; preds = %.preheader.i.i, %.lr.ph.i.i
  %.014.i.i = phi i32 [ %19, %.lr.ph.i.i ], [ %10, %.preheader.i.i ]
  %16 = load ptr, ptr %5, align 8
  %17 = sext i32 %.014.i.i to i64
  %18 = getelementptr inbounds i32, ptr %16, i64 %17
  %19 = load i32, ptr %18, align 4
  store i32 %.09.i.i, ptr %18, align 4
  %.not11.i.i = icmp eq i32 %19, %.09.i.i
  br i1 %.not11.i.i, label %_ZN12LiveRangeMap4findEj.exit, label %.lr.ph.i.i, !llvm.loop !8

_ZN12LiveRangeMap4findEj.exit:                    ; preds = %.lr.ph.i.i
  %20 = load ptr, ptr %4, align 8
  %21 = getelementptr inbounds i32, ptr %20, i64 %8
  store i32 %.09.i.i, ptr %21, align 4
  br label %_ZN12LiveRangeMap4findEj.exit.thread

_ZN12LiveRangeMap4findEj.exit.thread:             ; preds = %.preheader.i.i, %6, %_ZN12LiveRangeMap4findEj.exit
  %22 = add nuw i32 %.08, 1
  %exitcond.not = icmp eq i32 %22, %3
  br i1 %exitcond.not, label %._crit_edge, label %6, !llvm.loop !11

._crit_edge:                                      ; preds = %_ZN12LiveRangeMap4findEj.exit.thread, %1
  ret void
}